target datalayout = "e-m:e-p270:32:32-p271:32:32-p272:64:64-i64:64-i128:128-f80:128-n8:16:32:64-S128"
target triple = "x86_64-pc-linux-gnu"

%"class.arrow::Array" = type { ptr, %"class.std::shared_ptr", ptr }
%"class.std::shared_ptr" = type { %"class.std::__shared_ptr" }
%"class.std::__shared_ptr" = type { ptr, %"class.std::__shared_count" }
%"class.std::__shared_count" = type { ptr }
%"struct.arrow::ArraySpan" = type { ptr, i64, i64, i64, [3 x %"struct.arrow::BufferSpan"], %"class.std::vector.46" }
%"struct.arrow::BufferSpan" = type { ptr, i64, ptr }
%"class.std::vector.46" = type { %"struct.std::_Vector_base.47" }
%"struct.std::_Vector_base.47" = type { %"struct.std::_Vector_base<arrow::ArraySpan, std::allocator<arrow::ArraySpan>>::_Vector_impl" }
%"struct.std::_Vector_base<arrow::ArraySpan, std::allocator<arrow::ArraySpan>>::_Vector_impl" = type { %"struct.std::_Vector_base<arrow::ArraySpan, std::allocator<arrow::ArraySpan>>::_Vector_impl_data" }
%"struct.std::_Vector_base<arrow::ArraySpan, std::allocator<arrow::ArraySpan>>::_Vector_impl_data" = type { ptr, ptr, ptr }

; Function Attrs: mustprogress nounwind uwtable
define linkonce_odr void @_ZNSt15__new_allocatorIN5arrow9ArraySpanEEC2Ev(ptr noundef nonnull align 1 dereferenceable(1) %0) unnamed_addr #0 comdat align 2 {
  %2 = alloca ptr, align 8
  store ptr %0, ptr %2, align 8, !tbaa !286
  ret void
}

; Function Attrs: mustprogress nounwind uwtable
define linkonce_odr void @_ZNSt12_Vector_baseIN5arrow9ArraySpanESaIS1_EE17_Vector_impl_dataC2Ev(ptr noundef nonnull align 8 dereferenceable(24) %0) unnamed_addr #0 comdat align 2 {
  %2 = alloca ptr, align 8
  store ptr %0, ptr %2, align 8, !tbaa !283
  %3 = load ptr, ptr %2, align 8
  %4 = getelementptr inbounds nuw %"struct.std::_Vector_base<arrow::ArraySpan, std::allocator<arrow::ArraySpan>>::_Vector_impl_data", ptr %3, i32 0, i32 0
  store ptr null, ptr %4, align 8, !tbaa !275
  %5 = getelementptr inbounds nuw %"struct.std::_Vector_base<arrow::ArraySpan, std::allocator<arrow::ArraySpan>>::_Vector_impl_data", ptr %3, i32 0, i32 1
  store ptr null, ptr %5, align 8, !tbaa !276
  %6 = getelementptr inbounds nuw %"struct.std::_Vector_base<arrow::ArraySpan, std::allocator<arrow::ArraySpan>>::_Vector_impl_data", ptr %3, i32 0, i32 2
  store ptr null, ptr %6, align 8, !tbaa !285
  ret void
}

; Function Attrs: mustprogress nounwind uwtable
define linkonce_odr void @_ZNSaIN5arrow9ArraySpanEEC2Ev(ptr noundef nonnull align 1 dereferenceable(1) %0) unnamed_addr #0 comdat align 2 {
  %2 = alloca ptr, align 8
  store ptr %0, ptr %2, align 8, !tbaa !281
  %3 = load ptr, ptr %2, align 8
  call void @_ZNSt15__new_allocatorIN5arrow9ArraySpanEEC2Ev(ptr noundef nonnull align 1 dereferenceable(1) %3) #19
  ret void
}

; Function Attrs: mustprogress nounwind uwtable
define linkonce_odr void @_ZNSt12_Vector_baseIN5arrow9ArraySpanESaIS1_EE12_Vector_implC2Ev(ptr noundef nonnull align 8 dereferenceable(24) %0) unnamed_addr #0 comdat align 2 {
  %2 = alloca ptr, align 8
  store ptr %0, ptr %2, align 8, !tbaa !279
  %3 = load ptr, ptr %2, align 8
  call void @_ZNSaIN5arrow9ArraySpanEEC2Ev(ptr noundef nonnull align 1 dereferenceable(1) %3) #19
  call void @_ZNSt12_Vector_baseIN5arrow9ArraySpanESaIS1_EE17_Vector_impl_dataC2Ev(ptr noundef nonnull align 8 dereferenceable(24) %3) #19
  ret void
}

; Function Attrs: mustprogress nounwind uwtable
define linkonce_odr void @_ZNSt12_Vector_baseIN5arrow9ArraySpanESaIS1_EEC2Ev(ptr noundef nonnull align 8 dereferenceable(24) %0) unnamed_addr #0 comdat align 2 {
  %2 = alloca ptr, align 8
  store ptr %0, ptr %2, align 8, !tbaa !277
  %3 = load ptr, ptr %2, align 8
  %4 = getelementptr inbounds nuw %"struct.std::_Vector_base.47", ptr %3, i32 0, i32 0
  call void @_ZNSt12_Vector_baseIN5arrow9ArraySpanESaIS1_EE12_Vector_implC2Ev(ptr noundef nonnull align 8 dereferenceable(24) %4) #19
  ret void
}

; Function Attrs: mustprogress nounwind uwtable
define linkonce_odr noundef ptr @_ZNKSt12__shared_ptrIN5arrow9ArrayDataELN9__gnu_cxx12_Lock_policyE2EE3getEv(ptr noundef nonnull align 8 dereferenceable(16) %0) #0 comdat align 2 {
  %2 = alloca ptr, align 8
  store ptr %0, ptr %2, align 8, !tbaa !219
  %3 = load ptr, ptr %2, align 8
  %4 = getelementptr inbounds nuw %"class.std::__shared_ptr", ptr %3, i32 0, i32 0
  %5 = load ptr, ptr %4, align 8, !tbaa !221
  ret ptr %5
}

; Function Attrs: mustprogress nounwind uwtable
define linkonce_odr void @_ZNSt6vectorIN5arrow9ArraySpanESaIS1_EEC2Ev(ptr noundef nonnull align 8 dereferenceable(24) %0) unnamed_addr #0 comdat align 2 {
  %2 = alloca ptr, align 8
  store ptr %0, ptr %2, align 8, !tbaa !273
  %3 = load ptr, ptr %2, align 8
  call void @_ZNSt12_Vector_baseIN5arrow9ArraySpanESaIS1_EEC2Ev(ptr noundef nonnull align 8 dereferenceable(24) %3) #19
  ret void
}

; Function Attrs: inlinehint mustprogress nounwind uwtable
define linkonce_odr void @_ZN5arrow10BufferSpanC2Ev(ptr noundef nonnull align 8 dereferenceable(24) %0) unnamed_addr #4 comdat align 2 {
  %2 = alloca ptr, align 8
  store ptr %0, ptr %2, align 8, !tbaa !267
  %3 = load ptr, ptr %2, align 8
  %4 = getelementptr inbounds nuw %"struct.arrow::BufferSpan", ptr %3, i32 0, i32 0
  store ptr null, ptr %4, align 8, !tbaa !269
  %5 = getelementptr inbounds nuw %"struct.arrow::BufferSpan", ptr %3, i32 0, i32 1
  store i64 0, ptr %5, align 8, !tbaa !271
  %6 = getelementptr inbounds nuw %"struct.arrow::BufferSpan", ptr %3, i32 0, i32 2
  store ptr null, ptr %6, align 8, !tbaa !272
  ret void
}

; Function Attrs: mustprogress nounwind uwtable
define linkonce_odr noundef ptr @_ZNKSt19__shared_ptr_accessIN5arrow9ArrayDataELN9__gnu_cxx12_Lock_policyE2ELb0ELb0EE6_M_getEv(ptr noundef nonnull align 1 dereferenceable(1) %0) #0 comdat align 2 {
  %2 = alloca ptr, align 8
  store ptr %0, ptr %2, align 8, !tbaa !154
  %3 = load ptr, ptr %2, align 8
  %4 = call noundef ptr @_ZNKSt12__shared_ptrIN5arrow9ArrayDataELN9__gnu_cxx12_Lock_policyE2EE3getEv(ptr noundef nonnull align 8 dereferenceable(16) %3) #19
  ret ptr %4
}

; Function Attrs: mustprogress uwtable
define linkonce_odr void @_ZN5arrow9ArraySpanC2ERKNS_9ArrayDataE(ptr noundef nonnull align 8 dereferenceable(128) %0, ptr noundef nonnull align 8 dereferenceable(120) %1) unnamed_addr #1 comdat align 2 personality ptr @__gxx_personality_v0 {
  %3 = alloca ptr, align 8
  %4 = alloca ptr, align 8
  %5 = alloca ptr, align 8
  %6 = alloca i32, align 4
  store ptr %0, ptr %3, align 8, !tbaa !214
  store ptr %1, ptr %4, align 8, !tbaa !215
  %7 = load ptr, ptr %3, align 8
  %8 = getelementptr inbounds nuw %"struct.arrow::ArraySpan", ptr %7, i32 0, i32 0
  store ptr null, ptr %8, align 8, !tbaa !216
  %9 = getelementptr inbounds nuw %"struct.arrow::ArraySpan", ptr %7, i32 0, i32 1
  store i64 0, ptr %9, align 8, !tbaa !217
  %10 = getelementptr inbounds nuw %"struct.arrow::ArraySpan", ptr %7, i32 0, i32 2
  store i64 -1, ptr %10, align 8, !tbaa !218
  %11 = getelementptr inbounds nuw %"struct.arrow::ArraySpan", ptr %7, i32 0, i32 3
  store i64 0, ptr %11, align 8, !tbaa !207
  %12 = getelementptr inbounds nuw %"struct.arrow::ArraySpan", ptr %7, i32 0, i32 4
  %13 = getelementptr inbounds [3 x %"struct.arrow::BufferSpan"], ptr %12, i32 0, i32 0
  %14 = getelementptr inbounds %"struct.arrow::BufferSpan", ptr %13, i64 3
  br label %15

15:                                               ; preds = %15, %2
  %16 = phi ptr [ %13, %2 ], [ %17, %15 ]
  call void @_ZN5arrow10BufferSpanC2Ev(ptr noundef nonnull align 8 dereferenceable(24) %16) #19
  %17 = getelementptr inbounds %"struct.arrow::BufferSpan", ptr %16, i64 1
  %18 = icmp eq ptr %17, %14
  br i1 %18, label %19, label %15

19:                                               ; preds = %15
  %20 = getelementptr inbounds nuw %"struct.arrow::ArraySpan", ptr %7, i32 0, i32 5
  call void @_ZNSt6vectorIN5arrow9ArraySpanESaIS1_EEC2Ev(ptr noundef nonnull align 8 dereferenceable(24) %20) #19
  %21 = load ptr, ptr %4, align 8, !tbaa !215
  invoke void @_ZN5arrow9ArraySpan10SetMembersERKNS_9ArrayDataE(ptr noundef nonnull align 8 dereferenceable(128) %7, ptr noundef nonnull align 8 dereferenceable(120) %21)
          to label %22 unwind label %23

22:                                               ; preds = %19
  ret void

23:                                               ; preds = %19
  %24 = landingpad { ptr, i32 }
          cleanup
  %25 = extractvalue { ptr, i32 } %24, 0
  store ptr %25, ptr %5, align 8
  %26 = extractvalue { ptr, i32 } %24, 1
  store i32 %26, ptr %6, align 4
  call void @_ZNSt6vectorIN5arrow9ArraySpanESaIS1_EED2Ev(ptr noundef nonnull align 8 dereferenceable(24) %20) #19
  br label %27

27:                                               ; preds = %23
  %28 = load ptr, ptr %5, align 8
  %29 = load i32, ptr %6, align 4
  %30 = insertvalue { ptr, i32 } poison, ptr %28, 0
  %31 = insertvalue { ptr, i32 } %30, i32 %29, 1
  resume { ptr, i32 } %31
}

; Function Attrs: mustprogress nounwind uwtable
define linkonce_odr noundef nonnull align 8 dereferenceable(120) ptr @_ZNKSt19__shared_ptr_accessIN5arrow9ArrayDataELN9__gnu_cxx12_Lock_policyE2ELb0ELb0EEdeEv(ptr noundef nonnull align 1 dereferenceable(1) %0) #0 comdat align 2 {
  %2 = alloca ptr, align 8
  store ptr %0, ptr %2, align 8, !tbaa !154
  %3 = load ptr, ptr %2, align 8
  br label %4

4:                                                ; preds = %1
  br label %5

5:                                                ; preds = %4
  br label %6

6:                                                ; preds = %5
  %7 = call noundef ptr @_ZNKSt19__shared_ptr_accessIN5arrow9ArrayDataELN9__gnu_cxx12_Lock_policyE2ELb0ELb0EE6_M_getEv(ptr noundef nonnull align 1 dereferenceable(1) %3) #19
  ret ptr %7
}

; Function Attrs: mustprogress uwtable
define noundef i64 @_ZNK5arrow18RunEndEncodedArray18FindPhysicalLengthEv(ptr noundef nonnull align 8 dereferenceable(64) %0) #1 align 2 personality ptr @__gxx_personality_v0 {
  %2 = alloca ptr, align 8
  %3 = alloca %"struct.arrow::ArraySpan", align 8
  %4 = alloca ptr, align 8
  %5 = alloca i32, align 4
  store ptr %0, ptr %2, align 8, !tbaa !53
  %6 = load ptr, ptr %2, align 8
  call void @llvm.lifetime.start.p0(i64 128, ptr %3) #19
  %7 = getelementptr inbounds nuw %"class.arrow::Array", ptr %6, i32 0, i32 1
  %8 = call noundef nonnull align 8 dereferenceable(120) ptr @_ZNKSt19__shared_ptr_accessIN5arrow9ArrayDataELN9__gnu_cxx12_Lock_policyE2ELb0ELb0EEdeEv(ptr noundef nonnull align 1 dereferenceable(1) %7) #19
  call void @_ZN5arrow9ArraySpanC2ERKNS_9ArrayDataE(ptr noundef nonnull align 8 dereferenceable(128) %3, ptr noundef nonnull align 8 dereferenceable(120) %8)
  %9 = invoke noundef i64 @_ZN5arrow8ree_util18FindPhysicalLengthERKNS_9ArraySpanE(ptr noundef nonnull align 8 dereferenceable(128) %3)
          to label %10 unwind label %11

10:                                               ; preds = %1
  call void @_ZN5arrow9ArraySpanD2Ev(ptr noundef nonnull align 8 dereferenceable(128) %3) #19
  call void @llvm.lifetime.end.p0(i64 128, ptr %3) #19
  ret i64 %9

11:                                               ; preds = %1
  %12 = landingpad { ptr, i32 }
          cleanup
  %13 = extractvalue { ptr, i32 } %12, 0
  store ptr %13, ptr %4, align 8
  %14 = extractvalue { ptr, i32 } %12, 1
  store i32 %14, ptr %5, align 4
  call void @_ZN5arrow9ArraySpanD2Ev(ptr noundef nonnull align 8 dereferenceable(128) %3) #19
  call void @llvm.lifetime.end.p0(i64 128, ptr %3) #19
  br label %15

15:                                               ; preds = %11
  %16 = load ptr, ptr %4, align 8
  %17 = load i32, ptr %5, align 4
  %18 = insertvalue { ptr, i32 } poison, ptr %16, 0
  %19 = insertvalue { ptr, i32 } %18, i32 %17, 1
  resume { ptr, i32 } %19
}